; Function Attrs: nounwind uwtable
define i32 @Abc_CutVolumeCheck_rec(ptr noundef readonly captures(none) %0) local_unnamed_addr #0 {
  %2 = tail call fastcc i32 @Abc_NodeIsTravIdCurrent(ptr noundef %0)
  %.not14 = icmp eq i32 %2, 0
  br i1 %.not14, label %.lr.ph, label %tailrecurse._crit_edge

.lr.ph:                                           ; preds = %1, %tailrecurse
  %.tr16 = phi ptr [ %64, %tailrecurse ], [ %0, %1 ]
  %accumulator.tr15 = phi i32 [ %66, %tailrecurse ], [ 0, %1 ]
  %.val = load ptr, ptr %.tr16, align 8, !tbaa !73
  %3 = getelementptr i8, ptr %.tr16, i64 16
  %.val6 = load i32, ptr %3, align 8, !tbaa !79
  %4 = getelementptr inbounds nuw i8, ptr %.val, i64 216
  %5 = load i32, ptr %4, align 8, !tbaa !78
  %6 = getelementptr inbounds nuw i8, ptr %.val, i64 224
  %7 = add nsw i32 %.val6, 1
  %8 = getelementptr inbounds nuw i8, ptr %.val, i64 228
  %9 = load i32, ptr %8, align 4, !tbaa !77
  %.not.i.not.i.i.i = icmp slt i32 %.val6, %9
  br i1 %.not.i.not.i.i.i, label %Abc_NodeSetTravIdCurrent.exit, label %10

10:                                               ; preds = %.lr.ph
  %11 = load i32, ptr %6, align 8, !tbaa !75
  %12 = shl nsw i32 %11, 1
  %.not.i.i.i = icmp slt i32 %.val6, %12
  %.not.i.i.not.i.i.i = icmp sgt i32 %11, %.val6
  br i1 %.not.i.i.i, label %25, label %13

13:                                               ; preds = %10
  br i1 %.not.i.i.not.i.i.i, label %Vec_IntGrow.exit.i.i.i.i, label %14

14:                                               ; preds = %13
  %15 = getelementptr inbounds nuw i8, ptr %.val, i64 232
  %16 = load ptr, ptr %15, align 8, !tbaa !76
  %.not9.i.i.i.i.i = icmp eq ptr %16, null
  %17 = sext i32 %7 to i64
  %18 = shl nsw i64 %17, 2
  br i1 %.not9.i.i.i.i.i, label %21, label %19

19:                                               ; preds = %14
  %20 = tail call ptr @realloc(ptr noundef nonnull %16, i64 noundef %18) #21
  br label %23

21:                                               ; preds = %14
  %22 = tail call noalias ptr @malloc(i64 noundef %18) #20
  br label %23

23:                                               ; preds = %21, %19
  %24 = phi ptr [ %20, %19 ], [ %22, %21 ]
  store ptr %24, ptr %15, align 8, !tbaa !76
  br label %Vec_IntGrow.exit.sink.split.i.i.i.i

25:                                               ; preds = %10
  br i1 %.not.i.i.not.i.i.i, label %Vec_IntGrow.exit.i.i.i.i, label %26

26:                                               ; preds = %25
  %27 = getelementptr inbounds nuw i8, ptr %.val, i64 232
  %28 = load ptr, ptr %27, align 8, !tbaa !76
  %.not9.i21.i.i.i.i = icmp eq ptr %28, null
  %29 = sext i32 %12 to i64
  %30 = shl nsw i64 %29, 2
  br i1 %.not9.i21.i.i.i.i, label %33, label %31

31:                                               ; preds = %26
  %32 = tail call ptr @realloc(ptr noundef nonnull %28, i64 noundef %30) #21
  br label %35

33:                                               ; preds = %26
  %34 = tail call noalias ptr @malloc(i64 noundef %30) #20
  br label %35

35:                                               ; preds = %33, %31
  %36 = phi ptr [ %32, %31 ], [ %34, %33 ]
  store ptr %36, ptr %27, align 8, !tbaa !76
  br label %Vec_IntGrow.exit.sink.split.i.i.i.i

Vec_IntGrow.exit.sink.split.i.i.i.i:              ; preds = %35, %23
  %.sink.i.i.i.i = phi i32 [ %12, %35 ], [ %7, %23 ]
  store i32 %.sink.i.i.i.i, ptr %6, align 8, !tbaa !75
  %.pre.i.i.i = load i32, ptr %8, align 4, !tbaa !77
  br label %Vec_IntGrow.exit.i.i.i.i

Vec_IntGrow.exit.i.i.i.i:                         ; preds = %Vec_IntGrow.exit.sink.split.i.i.i.i, %25, %13
  %37 = phi i32 [ %.pre.i.i.i, %Vec_IntGrow.exit.sink.split.i.i.i.i ], [ %9, %25 ], [ %9, %13 ]
  %.not4.i.i.i = icmp sgt i32 %37, %.val6
  br i1 %.not4.i.i.i, label %._crit_edge.i.i.i.i, label %.lr.ph.i.i.i.i

.lr.ph.i.i.i.i:                                   ; preds = %Vec_IntGrow.exit.i.i.i.i
  %38 = getelementptr inbounds nuw i8, ptr %.val, i64 232
  %39 = load ptr, ptr %38, align 8, !tbaa !76
  %40 = sext i32 %37 to i64
  %41 = shl nsw i64 %40, 2
  %scevgep.i.i.i.i = getelementptr i8, ptr %39, i64 %41
  %42 = sub i32 %.val6, %37
  %43 = zext i32 %42 to i64
  %44 = shl nuw nsw i64 %43, 2
  %45 = add nuw nsw i64 %44, 4
  tail call void @llvm.memset.p0.i64(ptr noundef nonnull align 4 dereferenceable(1) %scevgep.i.i.i.i, i8 0, i64 %45, i1 false), !tbaa !45
  br label %._crit_edge.i.i.i.i

._crit_edge.i.i.i.i:                              ; preds = %.lr.ph.i.i.i.i, %Vec_IntGrow.exit.i.i.i.i
  store i32 %7, ptr %8, align 4, !tbaa !77
  br label %Abc_NodeSetTravIdCurrent.exit

Abc_NodeSetTravIdCurrent.exit:                    ; preds = %.lr.ph, %._crit_edge.i.i.i.i
  %46 = getelementptr i8, ptr %.val, i64 232
  %.val.i.i.i = load ptr, ptr %46, align 8, !tbaa !76
  %47 = sext i32 %.val6 to i64
  %48 = getelementptr inbounds i32, ptr %.val.i.i.i, i64 %47
  store i32 %5, ptr %48, align 4, !tbaa !45
  %49 = getelementptr i8, ptr %.tr16, i64 20
  %.val11 = load i32, ptr %49, align 4
  %50 = and i32 %.val11, 15
  switch i32 %50, label %tailrecurse [
    i32 5, label %51
    i32 2, label %51
  ]

51:                                               ; preds = %Abc_NodeSetTravIdCurrent.exit, %Abc_NodeSetTravIdCurrent.exit
  %puts = tail call i32 @puts(ptr nonnull dereferenceable(1) @str.1)
  br label %tailrecurse

tailrecurse:                                      ; preds = %Abc_NodeSetTravIdCurrent.exit, %51
  %.val7 = load ptr, ptr %.tr16, align 8, !tbaa !73
  %52 = getelementptr i8, ptr %.tr16, i64 32
  %.val8 = load ptr, ptr %52, align 8, !tbaa !84
  %53 = getelementptr i8, ptr %.val7, i64 32
  %.val7.val = load ptr, ptr %53, align 8, !tbaa !62
  %.val8.val = load i32, ptr %.val8, align 4, !tbaa !45
  %54 = getelementptr i8, ptr %.val7.val, i64 8
  %.val7.val.val = load ptr, ptr %54, align 8, !tbaa !35
  %55 = sext i32 %.val8.val to i64
  %56 = getelementptr inbounds ptr, ptr %.val7.val.val, i64 %55
  %57 = load ptr, ptr %56, align 8, !tbaa !41
  %58 = tail call i32 @Abc_CutVolumeCheck_rec(ptr noundef %57)
  %.val9 = load ptr, ptr %.tr16, align 8, !tbaa !73
  %.val10 = load ptr, ptr %52, align 8, !tbaa !84
  %59 = getelementptr i8, ptr %.val9, i64 32
  %.val9.val = load ptr, ptr %59, align 8, !tbaa !62
  %60 = getelementptr i8, ptr %.val10, i64 4
  %.val10.val = load i32, ptr %60, align 4, !tbaa !45
  %61 = getelementptr i8, ptr %.val9.val, i64 8
  %.val9.val.val = load ptr, ptr %61, align 8, !tbaa !35
  %62 = sext i32 %.val10.val to i64
  %63 = getelementptr inbounds ptr, ptr %.val9.val.val, i64 %62
  %64 = load ptr, ptr %63, align 8, !tbaa !41
  %65 = add i32 %accumulator.tr15, 1
  %66 = add i32 %65, %58
  %67 = tail call fastcc i32 @Abc_NodeIsTravIdCurrent(ptr noundef %64)
  %.not = icmp eq i32 %67, 0
  br i1 %.not, label %.lr.ph, label %tailrecurse._crit_edge

tailrecurse._crit_edge:                           ; preds = %tailrecurse, %1
  %accumulator.tr.lcssa = phi i32 [ 0, %1 ], [ %66, %tailrecurse ]
  ret i32 %accumulator.tr.lcssa
}